; Function Attrs: mustprogress nounwind uwtable
define hidden noundef ptr @_ZN5ZHeap10alloc_pageE9ZPageTypem16ZAllocationFlags8ZPageAge(ptr noundef nonnull align 64 dereferenceable(15937) %0, i8 noundef zeroext %1, i64 noundef %2, i8 %3, i8 noundef zeroext %4) local_unnamed_addr #1 align 2 {
  %6 = tail call noundef ptr @_ZN14ZPageAllocator10alloc_pageE9ZPageTypem16ZAllocationFlags8ZPageAge(ptr noundef nonnull align 8 dereferenceable(609) %0, i8 noundef zeroext %1, i64 noundef %2, i8 %3, i8 noundef zeroext %4) #10
  %.not = icmp eq ptr %6, null
  br i1 %.not, label %9, label %7

7:                                                ; preds = %5
  %8 = getelementptr inbounds i8, ptr %0, i64 616
  tail call void @_ZN10ZPageTable6insertEP5ZPage(ptr noundef nonnull align 8 dereferenceable(16) %8, ptr noundef nonnull %6) #10
  br label %9

9:                                                ; preds = %7, %5
  ret ptr %6
}